; ModuleID = 'source-C-CXX/61/600.c'
source_filename = "source-C-CXX/61/600.c"
target datalayout = "e-m:e-p270:32:32-p271:32:32-p272:64:64-i64:64-f80:128-n8:16:32:64-S128"
target triple = "x86_64-pc-linux-gnu"

; Function Attrs: nounwind sspstrong uwtable
define dso_local void @main() local_unnamed_addr #0 {
  %1 = tail call noalias align 16 dereferenceable_or_null(256) i8* @calloc(i64 256, i64 1) #4
  %2 = tail call noalias align 16 dereferenceable_or_null(256) i8* @calloc(i64 256, i64 1) #4
  %3 = tail call i32 (i8*, ...) bitcast (i32 (...)* @gets to i32 (i8*, ...)*)(i8* %1) #4
  br label %4

4:                                                ; preds = %17, %0
  %5 = phi i64 [ %19, %17 ], [ 0, %0 ]
  %6 = phi i32 [ %18, %17 ], [ 0, %0 ]
  %7 = getelementptr inbounds i8, i8* %1, i64 %5
  %8 = load i8, i8* %7, align 1, !tbaa !5
  switch i8 %8, label %13 [
    i8 0, label %20
    i8 32, label %9
  ]

9:                                                ; preds = %4
  %10 = getelementptr inbounds i8, i8* %7, i64 1
  %11 = load i8, i8* %10, align 1, !tbaa !5
  %12 = icmp eq i8 %11, 32
  br i1 %12, label %17, label %13

13:                                               ; preds = %4, %9
  %14 = sext i32 %6 to i64
  %15 = getelementptr inbounds i8, i8* %2, i64 %14
  store i8 %8, i8* %15, align 1, !tbaa !5
  %16 = add nsw i32 %6, 1
  br label %17

17:                                               ; preds = %13, %9
  %18 = phi i32 [ %6, %9 ], [ %16, %13 ]
  %19 = add nuw i64 %5, 1
  br label %4, !llvm.loop !8

20:                                               ; preds = %4
  %21 = tail call i32 @puts(i8* nonnull dereferenceable(1) %2)
  ret void
}

; Function Attrs: mustprogress nofree nounwind willreturn
declare noalias noundef align 16 i8* @calloc(i64 noundef, i64 noundef) local_unnamed_addr #1

declare i32 @gets(...) local_unnamed_addr #2

; Function Attrs: nofree nounwind
declare noundef i32 @puts(i8* nocapture noundef readonly) local_unnamed_addr #3


!llvm.module.flags = !{!0, !1, !2, !3}
!llvm.ident = !{!4}

!0 = !{i32 1, !"wchar_size", i32 4}
!1 = !{i32 7, !"PIC Level", i32 2}
!2 = !{i32 7, !"PIE Level", i32 2}
!3 = !{i32 7, !"uwtable", i32 1}
!4 = !{!"clang version 13.0.0"}
!5 = !{!6, !6, i64 0}
!6 = !{!"omnipotent char", !7, i64 0}
!7 = !{!"Simple C/C++ TBAA"}
!8 = distinct !{!8, !9}
!9 = !{!"llvm.loop.mustprogress"}
